; Function Attrs: nounwind uwtable
define internal fastcc void @Io_NtkWriteSubckt(ptr noundef nonnull captures(none) %0, ptr noundef readonly captures(none) %1) unnamed_addr #0 {
  %3 = getelementptr inbounds nuw i8, ptr %1, i64 56
  %4 = load ptr, ptr %3, align 8
  %5 = getelementptr i8, ptr %4, i64 8
  %.val = load ptr, ptr %5, align 8
  %6 = tail call i32 (ptr, ptr, ...) @fprintf(ptr noundef nonnull %0, ptr noundef nonnull @.str.76, ptr noundef %.val) #10
  %7 = getelementptr i8, ptr %4, i64 40
  %.val2743 = load ptr, ptr %7, align 8
  %8 = getelementptr i8, ptr %.val2743, i64 4
  %.val27.val44 = load i32, ptr %8, align 4
  %9 = icmp sgt i32 %.val27.val44, 0
  br i1 %9, label %.lr.ph, label %.critedge.preheader

.lr.ph:                                           ; preds = %2
  %10 = getelementptr i8, ptr %1, i64 32
  br label %15

.critedge.preheader:                              ; preds = %15, %2
  %11 = getelementptr i8, ptr %4, i64 48
  %.val3347 = load ptr, ptr %11, align 8
  %12 = getelementptr i8, ptr %.val3347, i64 4
  %.val33.val48 = load i32, ptr %12, align 4
  %13 = icmp sgt i32 %.val33.val48, 0
  br i1 %13, label %.lr.ph51, label %.critedge2

.lr.ph51:                                         ; preds = %.critedge.preheader
  %14 = getelementptr i8, ptr %1, i64 48
  br label %.critedge

15:                                               ; preds = %.lr.ph, %15
  %indvars.iv = phi i64 [ 0, %.lr.ph ], [ %indvars.iv.next, %15 ]
  %.val2746 = phi ptr [ %.val2743, %.lr.ph ], [ %.val27, %15 ]
  %16 = getelementptr i8, ptr %.val2746, i64 8
  %.val28.val = load ptr, ptr %16, align 8
  %17 = getelementptr inbounds nuw ptr, ptr %.val28.val, i64 %indvars.iv
  %18 = load ptr, ptr %17, align 8
  %.val31 = load ptr, ptr %18, align 8
  %19 = getelementptr i8, ptr %18, i64 48
  %.val32 = load ptr, ptr %19, align 8
  %20 = getelementptr i8, ptr %.val31, i64 32
  %.val31.val = load ptr, ptr %20, align 8
  %.val32.val = load i32, ptr %.val32, align 4
  %21 = getelementptr i8, ptr %.val31.val, i64 8
  %.val31.val.val = load ptr, ptr %21, align 8
  %22 = sext i32 %.val32.val to i64
  %23 = getelementptr inbounds ptr, ptr %.val31.val.val, i64 %22
  %24 = load ptr, ptr %23, align 8
  %25 = tail call ptr @Abc_ObjName(ptr noundef %24) #10
  %26 = tail call i32 (ptr, ptr, ...) @fprintf(ptr noundef nonnull %0, ptr noundef nonnull @.str.40, ptr noundef %25) #10
  %.val39 = load ptr, ptr %1, align 8
  %.val40 = load ptr, ptr %10, align 8
  %27 = getelementptr i8, ptr %.val39, i64 32
  %.val39.val = load ptr, ptr %27, align 8
  %28 = getelementptr i8, ptr %.val39.val, i64 8
  %.val39.val.val = load ptr, ptr %28, align 8
  %29 = getelementptr inbounds nuw i32, ptr %.val40, i64 %indvars.iv
  %30 = load i32, ptr %29, align 4
  %31 = sext i32 %30 to i64
  %32 = getelementptr inbounds ptr, ptr %.val39.val.val, i64 %31
  %33 = load ptr, ptr %32, align 8
  %.val37 = load ptr, ptr %33, align 8
  %34 = getelementptr i8, ptr %33, i64 32
  %.val38 = load ptr, ptr %34, align 8
  %35 = getelementptr i8, ptr %.val37, i64 32
  %.val37.val = load ptr, ptr %35, align 8
  %.val38.val = load i32, ptr %.val38, align 4
  %36 = getelementptr i8, ptr %.val37.val, i64 8
  %.val37.val.val = load ptr, ptr %36, align 8
  %37 = sext i32 %.val38.val to i64
  %38 = getelementptr inbounds ptr, ptr %.val37.val.val, i64 %37
  %39 = load ptr, ptr %38, align 8
  %40 = tail call ptr @Abc_ObjName(ptr noundef %39) #10
  %41 = tail call i32 (ptr, ptr, ...) @fprintf(ptr noundef nonnull %0, ptr noundef nonnull @.str.77, ptr noundef %40) #10
  %indvars.iv.next = add nuw nsw i64 %indvars.iv, 1
  %.val27 = load ptr, ptr %7, align 8
  %42 = getelementptr i8, ptr %.val27, i64 4
  %.val27.val = load i32, ptr %42, align 4
  %43 = sext i32 %.val27.val to i64
  %44 = icmp slt i64 %indvars.iv.next, %43
  br i1 %44, label %15, label %.critedge.preheader, !llvm.loop !57

.critedge:                                        ; preds = %.lr.ph51, %.critedge
  %indvars.iv53 = phi i64 [ 0, %.lr.ph51 ], [ %indvars.iv.next54, %.critedge ]
  %.val3350 = phi ptr [ %.val3347, %.lr.ph51 ], [ %.val33, %.critedge ]
  %45 = getelementptr i8, ptr %.val3350, i64 8
  %.val34.val = load ptr, ptr %45, align 8
  %46 = getelementptr inbounds nuw ptr, ptr %.val34.val, i64 %indvars.iv53
  %47 = load ptr, ptr %46, align 8
  %.val35 = load ptr, ptr %47, align 8
  %48 = getelementptr i8, ptr %47, i64 32
  %.val36 = load ptr, ptr %48, align 8
  %49 = getelementptr i8, ptr %.val35, i64 32
  %.val35.val = load ptr, ptr %49, align 8
  %.val36.val = load i32, ptr %.val36, align 4
  %50 = getelementptr i8, ptr %.val35.val, i64 8
  %.val35.val.val = load ptr, ptr %50, align 8
  %51 = sext i32 %.val36.val to i64
  %52 = getelementptr inbounds ptr, ptr %.val35.val.val, i64 %51
  %53 = load ptr, ptr %52, align 8
  %54 = tail call ptr @Abc_ObjName(ptr noundef %53) #10
  %55 = tail call i32 (ptr, ptr, ...) @fprintf(ptr noundef nonnull %0, ptr noundef nonnull @.str.40, ptr noundef %54) #10
  %.val41 = load ptr, ptr %1, align 8
  %.val42 = load ptr, ptr %14, align 8
  %56 = getelementptr i8, ptr %.val41, i64 32
  %.val41.val = load ptr, ptr %56, align 8
  %57 = getelementptr i8, ptr %.val41.val, i64 8
  %.val41.val.val = load ptr, ptr %57, align 8
  %58 = getelementptr inbounds nuw i32, ptr %.val42, i64 %indvars.iv53
  %59 = load i32, ptr %58, align 4
  %60 = sext i32 %59 to i64
  %61 = getelementptr inbounds ptr, ptr %.val41.val.val, i64 %60
  %62 = load ptr, ptr %61, align 8
  %.val29 = load ptr, ptr %62, align 8
  %63 = getelementptr i8, ptr %62, i64 48
  %.val30 = load ptr, ptr %63, align 8
  %64 = getelementptr i8, ptr %.val29, i64 32
  %.val29.val = load ptr, ptr %64, align 8
  %.val30.val = load i32, ptr %.val30, align 4
  %65 = getelementptr i8, ptr %.val29.val, i64 8
  %.val29.val.val = load ptr, ptr %65, align 8
  %66 = sext i32 %.val30.val to i64
  %67 = getelementptr inbounds ptr, ptr %.val29.val.val, i64 %66
  %68 = load ptr, ptr %67, align 8
  %69 = tail call ptr @Abc_ObjName(ptr noundef %68) #10
  %70 = tail call i32 (ptr, ptr, ...) @fprintf(ptr noundef nonnull %0, ptr noundef nonnull @.str.77, ptr noundef %69) #10
  %indvars.iv.next54 = add nuw nsw i64 %indvars.iv53, 1
  %.val33 = load ptr, ptr %11, align 8
  %71 = getelementptr i8, ptr %.val33, i64 4
  %.val33.val = load i32, ptr %71, align 4
  %72 = sext i32 %.val33.val to i64
  %73 = icmp slt i64 %indvars.iv.next54, %72
  br i1 %73, label %.critedge, label %.critedge2, !llvm.loop !58

.critedge2:                                       ; preds = %.critedge, %.critedge.preheader
  %fputc = tail call i32 @fputc(i32 10, ptr nonnull %0)
  ret void
}